target datalayout = "e-m:e-p270:32:32-p271:32:32-p272:64:64-i64:64-i128:128-f80:128-n8:16:32:64-S128"
target triple = "x86_64-pc-linux-gnu"

@opt_verbosity = internal global i32 6, align 4
@bio_err = external global ptr, align 8
@.str.351 = private unnamed_addr constant [22 x i8] c"../openssl/apps/cmp.c\00", align 1
@.str.352 = private unnamed_addr constant [6 x i8] c"error\00", align 1
@.str.353 = private unnamed_addr constant [1 x i8] zeroinitializer, align 1
@bio_out = external global ptr, align 8
@.str.355 = private unnamed_addr constant [5 x i8] c"info\00", align 1
@opt_crlform_s = internal global ptr @.str.399, align 8
@opt_crlform = internal global i32 4, align 4
@.str.626 = private unnamed_addr constant [53 x i8] c"%s:%s:%d:CMP %s: received %s, saving to file '%s'%s\0A\00", align 1
@__func__.save_crl = private unnamed_addr constant [9 x i8] c"save_crl\00", align 1
@.str.627 = private unnamed_addr constant [60 x i8] c"%s:%s:%d:CMP %s: could not open file '%s' for writing %s%s\0A\00", align 1
@.str.628 = private unnamed_addr constant [49 x i8] c"%s:%s:%d:CMP %s: cannot write %s to file '%s'%s\0A\00", align 1
@.str.629 = private unnamed_addr constant [47 x i8] c"error: unsupported type '%s' for writing CRLs\0A\00", align 1
@.str.630 = private unnamed_addr constant [89 x i8] c"%s:%s:%d:CMP %s: Failed to delete %s, which should be done to indicate there is no %s%s\0A\00", align 1
@__func__.delete_file = private unnamed_addr constant [12 x i8] c"delete_file\00", align 1

; Function Attrs: nounwind uwtable
define internal i32 @write_crl(ptr noundef %0, ptr noundef %1) #0 {
  %3 = alloca i32, align 4
  %4 = alloca ptr, align 8
  %5 = alloca ptr, align 8
  store ptr %0, ptr %4, align 8, !tbaa !21
  store ptr %1, ptr %5, align 8, !tbaa !69
  %6 = load i32, ptr @opt_crlform, align 4, !tbaa !4
  %7 = icmp ne i32 %6, 32773
  br i1 %7, label %8, label %15

8:                                                ; preds = %2
  %9 = load i32, ptr @opt_crlform, align 4, !tbaa !4
  %10 = icmp ne i32 %9, 4
  br i1 %10, label %11, label %15

11:                                               ; preds = %8
  %12 = load ptr, ptr @bio_err, align 8, !tbaa !21
  %13 = load ptr, ptr @opt_crlform_s, align 8, !tbaa !11
  %14 = call i32 (ptr, ptr, ...) @BIO_printf(ptr noundef %12, ptr noundef @.str.629, ptr noundef %13)
  store i32 0, ptr %3, align 4
  br label %28

15:                                               ; preds = %8, %2
  %16 = load i32, ptr @opt_crlform, align 4, !tbaa !4
  %17 = icmp eq i32 %16, 32773
  br i1 %17, label %18, label %22

18:                                               ; preds = %15
  %19 = load ptr, ptr %4, align 8, !tbaa !21
  %20 = load ptr, ptr %5, align 8, !tbaa !69
  %21 = call i32 @PEM_write_bio_X509_CRL(ptr noundef %19, ptr noundef %20)
  br label %26

22:                                               ; preds = %15
  %23 = load ptr, ptr %4, align 8, !tbaa !21
  %24 = load ptr, ptr %5, align 8, !tbaa !69
  %25 = call i32 @i2d_X509_CRL_bio(ptr noundef %23, ptr noundef %24)
  br label %26

26:                                               ; preds = %22, %18
  %27 = phi i32 [ %21, %18 ], [ %25, %22 ]
  store i32 %27, ptr %3, align 4
  br label %28

28:                                               ; preds = %26, %11
  %29 = load i32, ptr %3, align 4
  ret i32 %29
}

; Function Attrs: nounwind uwtable
define internal i32 @save_crl(ptr noundef %0, ptr noundef %1, ptr noundef %2) #0 {
  %4 = alloca i32, align 4
  %5 = alloca ptr, align 8
  %6 = alloca ptr, align 8
  %7 = alloca ptr, align 8
  %8 = alloca ptr, align 8
  %9 = alloca i32, align 4
  %10 = alloca i32, align 4
  store ptr %0, ptr %5, align 8, !tbaa !69
  store ptr %1, ptr %6, align 8, !tbaa !11
  store ptr %2, ptr %7, align 8, !tbaa !11
  call void @llvm.lifetime.start.p0(i64 8, ptr %8) #11
  store ptr null, ptr %8, align 8, !tbaa !21
  call void @llvm.lifetime.start.p0(i64 4, ptr %9) #11
  store i32 0, ptr %9, align 4, !tbaa !4
  %11 = load ptr, ptr %6, align 8, !tbaa !11
  %12 = icmp eq ptr %11, null
  br i1 %12, label %13, label %14

13:                                               ; preds = %3
  store i32 1, ptr %4, align 4
  store i32 1, ptr %10, align 4
  br label %67

14:                                               ; preds = %3
  %15 = load ptr, ptr %5, align 8, !tbaa !69
  %16 = icmp ne ptr %15, null
  br i1 %16, label %17, label %27

17:                                               ; preds = %14
  %18 = load i32, ptr @opt_verbosity, align 4, !tbaa !4
  %19 = icmp sgt i32 6, %18
  br i1 %19, label %20, label %21

20:                                               ; preds = %17
  br label %26

21:                                               ; preds = %17
  %22 = load ptr, ptr @bio_out, align 8, !tbaa !21
  %23 = load ptr, ptr %7, align 8, !tbaa !11
  %24 = load ptr, ptr %6, align 8, !tbaa !11
  %25 = call i32 (ptr, ptr, ...) @BIO_printf(ptr noundef %22, ptr noundef @.str.626, ptr noundef @__func__.save_crl, ptr noundef @.str.351, i32 noundef 2436, ptr noundef @.str.355, ptr noundef %23, ptr noundef %24, ptr noundef @.str.353)
  br label %26

26:                                               ; preds = %21, %20
  br label %27

27:                                               ; preds = %26, %14
  %28 = call ptr @BIO_s_file()
  %29 = call ptr @BIO_new(ptr noundef %28)
  store ptr %29, ptr %8, align 8, !tbaa !21
  %30 = icmp eq ptr %29, null
  br i1 %30, label %37, label %31

31:                                               ; preds = %27
  %32 = load ptr, ptr %8, align 8, !tbaa !21
  %33 = load ptr, ptr %6, align 8, !tbaa !11
  %34 = call i64 @BIO_ctrl(ptr noundef %32, i32 noundef 108, i64 noundef 5, ptr noundef %33)
  %35 = trunc i64 %34 to i32
  %36 = icmp ne i32 %35, 0
  br i1 %36, label %47, label %37

37:                                               ; preds = %31, %27
  %38 = load i32, ptr @opt_verbosity, align 4, !tbaa !4
  %39 = icmp sgt i32 3, %38
  br i1 %39, label %40, label %41

40:                                               ; preds = %37
  br label %46

41:                                               ; preds = %37
  %42 = load ptr, ptr @bio_err, align 8, !tbaa !21
  %43 = load ptr, ptr %6, align 8, !tbaa !11
  %44 = load ptr, ptr %7, align 8, !tbaa !11
  %45 = call i32 (ptr, ptr, ...) @BIO_printf(ptr noundef %42, ptr noundef @.str.627, ptr noundef @__func__.save_crl, ptr noundef @.str.351, i32 noundef 2441, ptr noundef @.str.352, ptr noundef %43, ptr noundef %44, ptr noundef @.str.353)
  br label %46

46:                                               ; preds = %41, %40
  br label %63

47:                                               ; preds = %31
  %48 = load ptr, ptr %8, align 8, !tbaa !21
  %49 = load ptr, ptr %5, align 8, !tbaa !69
  %50 = call i32 @write_crl(ptr noundef %48, ptr noundef %49)
  %51 = icmp ne i32 %50, 0
  br i1 %51, label %62, label %52

52:                                               ; preds = %47
  %53 = load i32, ptr @opt_verbosity, align 4, !tbaa !4
  %54 = icmp sgt i32 3, %53
  br i1 %54, label %55, label %56

55:                                               ; preds = %52
  br label %61

56:                                               ; preds = %52
  %57 = load ptr, ptr @bio_err, align 8, !tbaa !21
  %58 = load ptr, ptr %7, align 8, !tbaa !11
  %59 = load ptr, ptr %6, align 8, !tbaa !11
  %60 = call i32 (ptr, ptr, ...) @BIO_printf(ptr noundef %57, ptr noundef @.str.628, ptr noundef @__func__.save_crl, ptr noundef @.str.351, i32 noundef 2446, ptr noundef @.str.352, ptr noundef %58, ptr noundef %59, ptr noundef @.str.353)
  br label %61

61:                                               ; preds = %56, %55
  br label %63

62:                                               ; preds = %47
  store i32 1, ptr %9, align 4, !tbaa !4
  br label %63

63:                                               ; preds = %62, %61, %46
  %64 = load ptr, ptr %8, align 8, !tbaa !21
  %65 = call i32 @BIO_free(ptr noundef %64)
  %66 = load i32, ptr %9, align 4, !tbaa !4
  store i32 %66, ptr %4, align 4
  store i32 1, ptr %10, align 4
  br label %67

67:                                               ; preds = %63, %13
  call void @llvm.lifetime.end.p0(i64 4, ptr %9) #11
  call void @llvm.lifetime.end.p0(i64 8, ptr %8) #11
  %68 = load i32, ptr %4, align 4
  ret i32 %68
}

; Function Attrs: nounwind uwtable
define internal i32 @delete_file(ptr noundef %0, ptr noundef %1) #0 {
  %3 = alloca i32, align 4
  %4 = alloca ptr, align 8
  %5 = alloca ptr, align 8
  store ptr %0, ptr %4, align 8, !tbaa !11
  store ptr %1, ptr %5, align 8, !tbaa !11
  %6 = load ptr, ptr %4, align 8, !tbaa !11
  %7 = icmp eq ptr %6, null
  br i1 %7, label %8, label %9

8:                                                ; preds = %2
  store i32 1, ptr %3, align 4
  br label %28

9:                                                ; preds = %2
  %10 = load ptr, ptr %4, align 8, !tbaa !11
  %11 = call i32 @unlink(ptr noundef %10) #11
  %12 = icmp ne i32 %11, 0
  br i1 %12, label %13, label %27

13:                                               ; preds = %9
  %14 = call ptr @__errno_location() #13
  %15 = load i32, ptr %14, align 4, !tbaa !4
  %16 = icmp ne i32 %15, 2
  br i1 %16, label %17, label %27

17:                                               ; preds = %13
  %18 = load i32, ptr @opt_verbosity, align 4, !tbaa !4
  %19 = icmp sgt i32 3, %18
  br i1 %19, label %20, label %21

20:                                               ; preds = %17
  br label %26

21:                                               ; preds = %17
  %22 = load ptr, ptr @bio_err, align 8, !tbaa !21
  %23 = load ptr, ptr %4, align 8, !tbaa !11
  %24 = load ptr, ptr %5, align 8, !tbaa !11
  %25 = call i32 (ptr, ptr, ...) @BIO_printf(ptr noundef %22, ptr noundef @.str.630, ptr noundef @__func__.delete_file, ptr noundef @.str.351, i32 noundef 2463, ptr noundef @.str.352, ptr noundef %23, ptr noundef %24, ptr noundef @.str.353)
  br label %26

26:                                               ; preds = %21, %20
  store i32 0, ptr %3, align 4
  br label %28

27:                                               ; preds = %13, %9
  store i32 1, ptr %3, align 4
  br label %28

28:                                               ; preds = %27, %26, %8
  %29 = load i32, ptr %3, align 4
  ret i32 %29
}

; Function Attrs: nounwind uwtable
define internal i32 @save_crl_or_delete(ptr noundef %0, ptr noundef %1, ptr noundef %2) #0 {
  %4 = alloca i32, align 4
  %5 = alloca ptr, align 8
  %6 = alloca ptr, align 8
  %7 = alloca ptr, align 8
  store ptr %0, ptr %5, align 8, !tbaa !69
  store ptr %1, ptr %6, align 8, !tbaa !11
  store ptr %2, ptr %7, align 8, !tbaa !11
  %8 = load ptr, ptr %6, align 8, !tbaa !11
  %9 = icmp eq ptr %8, null
  br i1 %9, label %10, label %11

10:                                               ; preds = %3
  store i32 1, ptr %4, align 4
  br label %25

11:                                               ; preds = %3
  %12 = load ptr, ptr %5, align 8, !tbaa !69
  %13 = icmp eq ptr %12, null
  br i1 %13, label %14, label %18

14:                                               ; preds = %11
  %15 = load ptr, ptr %6, align 8, !tbaa !11
  %16 = load ptr, ptr %7, align 8, !tbaa !11
  %17 = call i32 @delete_file(ptr noundef %15, ptr noundef %16)
  br label %23

18:                                               ; preds = %11
  %19 = load ptr, ptr %5, align 8, !tbaa !69
  %20 = load ptr, ptr %6, align 8, !tbaa !11
  %21 = load ptr, ptr %7, align 8, !tbaa !11
  %22 = call i32 @save_crl(ptr noundef %19, ptr noundef %20, ptr noundef %21)
  br label %23

23:                                               ; preds = %18, %14
  %24 = phi i32 [ %17, %14 ], [ %22, %18 ]
  store i32 %24, ptr %4, align 4
  br label %25

25:                                               ; preds = %23, %10
  %26 = load i32, ptr %4, align 4
  ret i32 %26
}