; Function Attrs: nounwind uwtable
define internal fastcc range(i32 0, 2) i32 @save_crl_or_delete(ptr noundef %0, ptr noundef %1) unnamed_addr #0 {
  %3 = icmp eq ptr %1, null
  br i1 %3, label %delete_file.exit, label %4

4:                                                ; preds = %2
  %5 = icmp eq ptr %0, null
  br i1 %5, label %6, label %17

6:                                                ; preds = %4
  %7 = tail call i32 @unlink(ptr noundef nonnull %1) #12
  %.not.i = icmp eq i32 %7, 0
  br i1 %.not.i, label %delete_file.exit, label %8

8:                                                ; preds = %6
  %9 = tail call ptr @__errno_location() #15
  %10 = load i32, ptr %9, align 4, !tbaa !10
  %.not5.i = icmp eq i32 %10, 2
  br i1 %.not5.i, label %delete_file.exit, label %11

11:                                               ; preds = %8
  %12 = load i32, ptr @opt_verbosity, align 4, !tbaa !10
  %13 = icmp slt i32 %12, 3
  br i1 %13, label %delete_file.exit, label %14

14:                                               ; preds = %11
  %15 = load ptr, ptr @bio_err, align 8, !tbaa !12
  %16 = tail call i32 (ptr, ptr, ...) @BIO_printf(ptr noundef %15, ptr noundef nonnull @.str.630, ptr noundef nonnull @__func__.delete_file, ptr noundef nonnull @.str.351, i32 noundef 2463, ptr noundef nonnull @.str.352, ptr noundef nonnull %1, ptr noundef nonnull @.str.612, ptr noundef nonnull @.str.353) #12
  br label %delete_file.exit

17:                                               ; preds = %4
  %18 = load i32, ptr @opt_verbosity, align 4
  %19 = icmp slt i32 %18, 6
  br i1 %19, label %23, label %20

20:                                               ; preds = %17
  %21 = load ptr, ptr @bio_out, align 8, !tbaa !12
  %22 = tail call i32 (ptr, ptr, ...) @BIO_printf(ptr noundef %21, ptr noundef nonnull @.str.626, ptr noundef nonnull @__func__.save_crl, ptr noundef nonnull @.str.351, i32 noundef 2436, ptr noundef nonnull @.str.355, ptr noundef nonnull @.str.612, ptr noundef nonnull %1, ptr noundef nonnull @.str.353) #12
  br label %23

23:                                               ; preds = %20, %17
  %24 = tail call ptr @BIO_s_file() #12
  %25 = tail call ptr @BIO_new(ptr noundef %24) #12
  %26 = icmp eq ptr %25, null
  br i1 %26, label %30, label %27

27:                                               ; preds = %23
  %28 = tail call i64 @BIO_ctrl(ptr noundef nonnull %25, i32 noundef 108, i64 noundef 5, ptr noundef nonnull %1) #12
  %29 = and i64 %28, 4294967295
  %.not.i9 = icmp eq i64 %29, 0
  br i1 %.not.i9, label %30, label %36

30:                                               ; preds = %27, %23
  %31 = load i32, ptr @opt_verbosity, align 4, !tbaa !10
  %32 = icmp slt i32 %31, 3
  br i1 %32, label %save_crl.exit, label %33

33:                                               ; preds = %30
  %34 = load ptr, ptr @bio_err, align 8, !tbaa !12
  %35 = tail call i32 (ptr, ptr, ...) @BIO_printf(ptr noundef %34, ptr noundef nonnull @.str.627, ptr noundef nonnull @__func__.save_crl, ptr noundef nonnull @.str.351, i32 noundef 2441, ptr noundef nonnull @.str.352, ptr noundef nonnull %1, ptr noundef nonnull @.str.612, ptr noundef nonnull @.str.353) #12
  br label %save_crl.exit

36:                                               ; preds = %27
  %37 = load i32, ptr @opt_crlform, align 4, !tbaa !10
  switch i32 %37, label %write_crl.exit.thread.i [
    i32 32773, label %41
    i32 4, label %43
  ]

write_crl.exit.thread.i:                          ; preds = %36
  %38 = load ptr, ptr @bio_err, align 8, !tbaa !12
  %39 = load ptr, ptr @opt_crlform_s, align 8, !tbaa !4
  %40 = tail call i32 (ptr, ptr, ...) @BIO_printf(ptr noundef %38, ptr noundef nonnull @.str.629, ptr noundef %39) #12
  br label %45

41:                                               ; preds = %36
  %42 = tail call i32 @PEM_write_bio_X509_CRL(ptr noundef nonnull %25, ptr noundef nonnull %0) #12
  br label %write_crl.exit.i

43:                                               ; preds = %36
  %44 = tail call i32 @i2d_X509_CRL_bio(ptr noundef nonnull %25, ptr noundef nonnull %0) #12
  br label %write_crl.exit.i

write_crl.exit.i:                                 ; preds = %43, %41
  %.0.i.i = phi i32 [ %42, %41 ], [ %44, %43 ]
  %.not18.i = icmp eq i32 %.0.i.i, 0
  br i1 %.not18.i, label %45, label %save_crl.exit

45:                                               ; preds = %write_crl.exit.i, %write_crl.exit.thread.i
  %46 = load i32, ptr @opt_verbosity, align 4, !tbaa !10
  %47 = icmp slt i32 %46, 3
  br i1 %47, label %save_crl.exit, label %48

48:                                               ; preds = %45
  %49 = load ptr, ptr @bio_err, align 8, !tbaa !12
  %50 = tail call i32 (ptr, ptr, ...) @BIO_printf(ptr noundef %49, ptr noundef nonnull @.str.628, ptr noundef nonnull @__func__.save_crl, ptr noundef nonnull @.str.351, i32 noundef 2446, ptr noundef nonnull @.str.352, ptr noundef nonnull @.str.612, ptr noundef nonnull %1, ptr noundef nonnull @.str.353) #12
  br label %save_crl.exit

save_crl.exit:                                    ; preds = %30, %33, %write_crl.exit.i, %45, %48
  %.0.i10 = phi i32 [ 0, %30 ], [ 0, %33 ], [ 0, %45 ], [ 0, %48 ], [ 1, %write_crl.exit.i ]
  %51 = tail call i32 @BIO_free(ptr noundef %25) #12
  br label %delete_file.exit

delete_file.exit:                                 ; preds = %14, %11, %8, %6, %save_crl.exit, %2
  %.0 = phi i32 [ 1, %2 ], [ %.0.i10, %save_crl.exit ], [ 0, %11 ], [ 0, %14 ], [ 1, %8 ], [ 1, %6 ]
  ret i32 %.0
}